target datalayout = "e-m:e-p270:32:32-p271:32:32-p272:64:64-i64:64-i128:128-f80:128-n8:16:32:64-S128"
target triple = "x86_64-unknown-linux-gnu"

%"class.llvh::FoldingSetBase" = type { ptr, ptr, i32, i32 }

; Function Attrs: mustprogress nounwind uwtable
define hidden void @_ZN4llvh14FoldingSetBase5clearEv(ptr noundef nonnull align 8 dereferenceable(24) %this) #0 align 2 {
entry:
  %this.addr = alloca ptr, align 8
  store ptr %this, ptr %this.addr, align 8
  %this1 = load ptr, ptr %this.addr, align 8
  %Buckets = getelementptr inbounds %"class.llvh::FoldingSetBase", ptr %this1, i32 0, i32 1
  %0 = load ptr, ptr %Buckets, align 8
  %NumBuckets = getelementptr inbounds %"class.llvh::FoldingSetBase", ptr %this1, i32 0, i32 2
  %1 = load i32, ptr %NumBuckets, align 8
  %conv = zext i32 %1 to i64
  %mul = mul i64 %conv, 8
  call void @llvm.memset.p0.i64(ptr align 8 %0, i8 0, i64 %mul, i1 false)
  %Buckets2 = getelementptr inbounds %"class.llvh::FoldingSetBase", ptr %this1, i32 0, i32 1
  %2 = load ptr, ptr %Buckets2, align 8
  %NumBuckets3 = getelementptr inbounds %"class.llvh::FoldingSetBase", ptr %this1, i32 0, i32 2
  %3 = load i32, ptr %NumBuckets3, align 8
  %idxprom = zext i32 %3 to i64
  %arrayidx = getelementptr inbounds ptr, ptr %2, i64 %idxprom
  store ptr inttoptr (i64 -1 to ptr), ptr %arrayidx, align 8
  %NumNodes = getelementptr inbounds %"class.llvh::FoldingSetBase", ptr %this1, i32 0, i32 3
  store i32 0, ptr %NumNodes, align 4
  ret void
}