; Function Attrs: mustprogress nofree norecurse nosync nounwind willreturn memory(write, argmem: readwrite, inaccessiblemem: none) uwtable
define hidden void @_ZN4llvh14FoldingSetBase5clearEv(ptr nocapture noundef nonnull align 8 dereferenceable(24) %this) local_unnamed_addr #8 align 2 {
entry:
  %Buckets = getelementptr inbounds i8, ptr %this, i64 8
  %0 = load ptr, ptr %Buckets, align 8
  %NumBuckets = getelementptr inbounds i8, ptr %this, i64 16
  %1 = load i32, ptr %NumBuckets, align 8
  %conv = zext i32 %1 to i64
  %mul = shl nuw nsw i64 %conv, 3
  tail call void @llvm.memset.p0.i64(ptr align 8 %0, i8 0, i64 %mul, i1 false)
  %2 = load ptr, ptr %Buckets, align 8
  %3 = load i32, ptr %NumBuckets, align 8
  %idxprom = zext i32 %3 to i64
  %arrayidx = getelementptr inbounds ptr, ptr %2, i64 %idxprom
  store ptr inttoptr (i64 -1 to ptr), ptr %arrayidx, align 8
  %NumNodes = getelementptr inbounds i8, ptr %this, i64 20
  store i32 0, ptr %NumNodes, align 4
  ret void
}